
hash.o:	file format elf64-bpf

Disassembly of section .text:

0000000000000000 <hash>:
       0:	71 10 0b 00 00 00 00 00	r0 = *(u8 *)(r1 + 11)
       1:	67 00 00 00 08 00 00 00	r0 <<= 8
       2:	71 12 0a 00 00 00 00 00	r2 = *(u8 *)(r1 + 10)
       3:	4f 20 00 00 00 00 00 00	r0 |= r2
       4:	71 12 09 00 00 00 00 00	r2 = *(u8 *)(r1 + 9)
       5:	67 02 00 00 08 00 00 00	r2 <<= 8
       6:	71 13 08 00 00 00 00 00	r3 = *(u8 *)(r1 + 8)
       7:	4f 32 00 00 00 00 00 00	r2 |= r3
       8:	dc 02 00 00 10 00 00 00	r2 = be16 r2
       9:	dc 00 00 00 10 00 00 00	r0 = be16 r0
      10:	0f 20 00 00 00 00 00 00	r0 += r2
      11:	71 12 0d 00 00 00 00 00	r2 = *(u8 *)(r1 + 13)
      12:	67 02 00 00 08 00 00 00	r2 <<= 8
      13:	71 13 0c 00 00 00 00 00	r3 = *(u8 *)(r1 + 12)
      14:	4f 32 00 00 00 00 00 00	r2 |= r3
      15:	dc 02 00 00 10 00 00 00	r2 = be16 r2
      16:	0f 20 00 00 00 00 00 00	r0 += r2
      17:	71 12 0f 00 00 00 00 00	r2 = *(u8 *)(r1 + 15)
      18:	67 02 00 00 08 00 00 00	r2 <<= 8
      19:	71 13 0e 00 00 00 00 00	r3 = *(u8 *)(r1 + 14)
      20:	4f 32 00 00 00 00 00 00	r2 |= r3
      21:	dc 02 00 00 10 00 00 00	r2 = be16 r2
      22:	0f 20 00 00 00 00 00 00	r0 += r2
      23:	71 12 11 00 00 00 00 00	r2 = *(u8 *)(r1 + 17)
      24:	67 02 00 00 08 00 00 00	r2 <<= 8
      25:	71 13 10 00 00 00 00 00	r3 = *(u8 *)(r1 + 16)
      26:	4f 32 00 00 00 00 00 00	r2 |= r3
      27:	dc 02 00 00 10 00 00 00	r2 = be16 r2
      28:	0f 20 00 00 00 00 00 00	r0 += r2
      29:	71 12 13 00 00 00 00 00	r2 = *(u8 *)(r1 + 19)
      30:	67 02 00 00 08 00 00 00	r2 <<= 8
      31:	71 13 12 00 00 00 00 00	r3 = *(u8 *)(r1 + 18)
      32:	4f 32 00 00 00 00 00 00	r2 |= r3
      33:	dc 02 00 00 10 00 00 00	r2 = be16 r2
      34:	0f 20 00 00 00 00 00 00	r0 += r2
      35:	71 12 17 00 00 00 00 00	r2 = *(u8 *)(r1 + 23)
      36:	67 02 00 00 08 00 00 00	r2 <<= 8
      37:	71 13 16 00 00 00 00 00	r3 = *(u8 *)(r1 + 22)
      38:	4f 32 00 00 00 00 00 00	r2 |= r3
      39:	71 13 14 00 00 00 00 00	r3 = *(u8 *)(r1 + 20)
      40:	71 11 15 00 00 00 00 00	r1 = *(u8 *)(r1 + 21)
      41:	67 01 00 00 08 00 00 00	r1 <<= 8
      42:	4f 31 00 00 00 00 00 00	r1 |= r3
      43:	dc 01 00 00 10 00 00 00	r1 = be16 r1
      44:	0f 10 00 00 00 00 00 00	r0 += r1
      45:	dc 02 00 00 10 00 00 00	r2 = be16 r2
      46:	0f 20 00 00 00 00 00 00	r0 += r2
      47:	27 00 00 00 1f 00 00 00	r0 *= 31
      48:	95 00 00 00 00 00 00 00	exit
