
ipv6_lookup_saddr.o:	file format elf64-bpf

Disassembly of section .text:

0000000000000000 <is_dst_one_one_one_one>:
       0:	71 15 0d 00 00 00 00 00	r5 = *(u8 *)(r1 + 13)
       1:	67 05 00 00 08 00 00 00	r5 <<= 8
       2:	71 12 0c 00 00 00 00 00	r2 = *(u8 *)(r1 + 12)
       3:	4f 25 00 00 00 00 00 00	r5 |= r2
       4:	71 12 0f 00 00 00 00 00	r2 = *(u8 *)(r1 + 15)
       5:	67 02 00 00 08 00 00 00	r2 <<= 8
       6:	71 13 0e 00 00 00 00 00	r3 = *(u8 *)(r1 + 14)
       7:	4f 32 00 00 00 00 00 00	r2 |= r3
       8:	71 10 11 00 00 00 00 00	r0 = *(u8 *)(r1 + 17)
       9:	67 00 00 00 08 00 00 00	r0 <<= 8
      10:	71 13 10 00 00 00 00 00	r3 = *(u8 *)(r1 + 16)
      11:	4f 30 00 00 00 00 00 00	r0 |= r3
      12:	71 13 13 00 00 00 00 00	r3 = *(u8 *)(r1 + 19)
      13:	67 03 00 00 08 00 00 00	r3 <<= 8
      14:	71 14 12 00 00 00 00 00	r4 = *(u8 *)(r1 + 18)
      15:	4f 43 00 00 00 00 00 00	r3 |= r4
      16:	71 16 15 00 00 00 00 00	r6 = *(u8 *)(r1 + 21)
      17:	67 06 00 00 08 00 00 00	r6 <<= 8
      18:	71 14 14 00 00 00 00 00	r4 = *(u8 *)(r1 + 20)
      19:	4f 46 00 00 00 00 00 00	r6 |= r4
      20:	71 14 17 00 00 00 00 00	r4 = *(u8 *)(r1 + 23)
      21:	67 04 00 00 08 00 00 00	r4 <<= 8
      22:	71 17 16 00 00 00 00 00	r7 = *(u8 *)(r1 + 22)
      23:	4f 74 00 00 00 00 00 00	r4 |= r7
      24:	67 04 00 00 10 00 00 00	r4 <<= 16
      25:	4f 64 00 00 00 00 00 00	r4 |= r6
      26:	67 03 00 00 10 00 00 00	r3 <<= 16
      27:	4f 03 00 00 00 00 00 00	r3 |= r0
      28:	67 02 00 00 10 00 00 00	r2 <<= 16
      29:	4f 52 00 00 00 00 00 00	r2 |= r5
      30:	71 15 09 00 00 00 00 00	r5 = *(u8 *)(r1 + 9)
      31:	67 05 00 00 08 00 00 00	r5 <<= 8
      32:	71 10 08 00 00 00 00 00	r0 = *(u8 *)(r1 + 8)
      33:	4f 05 00 00 00 00 00 00	r5 |= r0
      34:	71 10 0a 00 00 00 00 00	r0 = *(u8 *)(r1 + 10)
      35:	71 11 0b 00 00 00 00 00	r1 = *(u8 *)(r1 + 11)
      36:	67 01 00 00 08 00 00 00	r1 <<= 8
      37:	4f 01 00 00 00 00 00 00	r1 |= r0
      38:	67 01 00 00 10 00 00 00	r1 <<= 16
      39:	4f 51 00 00 00 00 00 00	r1 |= r5
      40:	dc 01 00 00 20 00 00 00	r1 = be32 r1
      41:	18 05 00 00 00 00 00 00 00 00 00 00 00 00 00 00	r5 = 0 ll
		0000000000000148:  R_BPF_64_64	lookups
      43:	61 50 00 00 00 00 00 00	r0 = *(u32 *)(r5 + 0)
      44:	dc 02 00 00 20 00 00 00	r2 = be32 r2
      45:	5d 01 0d 00 00 00 00 00	if r1 != r0 goto +13 <LBB0_4>
      46:	61 55 04 00 00 00 00 00	r5 = *(u32 *)(r5 + 4)
      47:	5d 52 0b 00 00 00 00 00	if r2 != r5 goto +11 <LBB0_4>
      48:	18 00 00 00 00 00 00 00 00 00 00 00 00 00 00 00	r0 = 0 ll
		0000000000000180:  R_BPF_64_64	lookups
      50:	61 05 08 00 00 00 00 00	r5 = *(u32 *)(r0 + 8)
      51:	bf 36 00 00 00 00 00 00	r6 = r3
      52:	dc 06 00 00 20 00 00 00	r6 = be32 r6
      53:	5d 56 05 00 00 00 00 00	if r6 != r5 goto +5 <LBB0_4>
      54:	b7 05 00 00 01 00 00 00	r5 = 1
      55:	61 00 0c 00 00 00 00 00	r0 = *(u32 *)(r0 + 12)
      56:	bf 46 00 00 00 00 00 00	r6 = r4
      57:	dc 06 00 00 20 00 00 00	r6 = be32 r6
      58:	1d 06 01 00 00 00 00 00	if r6 == r0 goto +1 <LBB0_5>

00000000000001d8 <LBB0_4>:
      59:	b7 05 00 00 00 00 00 00	r5 = 0

00000000000001e0 <LBB0_5>:
      60:	18 00 00 00 00 00 00 00 00 00 00 00 00 00 00 00	r0 = 0 ll
		00000000000001e0:  R_BPF_64_64	lookups
      62:	61 06 4c 00 00 00 00 00	r6 = *(u32 *)(r0 + 76)
      63:	5d 61 0d 00 00 00 00 00	if r1 != r6 goto +13 <LBB0_9>
      64:	61 00 50 00 00 00 00 00	r0 = *(u32 *)(r0 + 80)
      65:	5d 02 0b 00 00 00 00 00	if r2 != r0 goto +11 <LBB0_9>
      66:	18 06 00 00 00 00 00 00 00 00 00 00 00 00 00 00	r6 = 0 ll
		0000000000000210:  R_BPF_64_64	lookups
      68:	61 60 54 00 00 00 00 00	r0 = *(u32 *)(r6 + 84)
      69:	bf 37 00 00 00 00 00 00	r7 = r3
      70:	dc 07 00 00 20 00 00 00	r7 = be32 r7
      71:	5d 07 05 00 00 00 00 00	if r7 != r0 goto +5 <LBB0_9>
      72:	b7 00 00 00 01 00 00 00	r0 = 1
      73:	61 66 58 00 00 00 00 00	r6 = *(u32 *)(r6 + 88)
      74:	bf 47 00 00 00 00 00 00	r7 = r4
      75:	dc 07 00 00 20 00 00 00	r7 = be32 r7
      76:	1d 67 01 00 00 00 00 00	if r7 == r6 goto +1 <LBB0_10>

0000000000000268 <LBB0_9>:
      77:	b7 00 00 00 00 00 00 00	r0 = 0

0000000000000270 <LBB0_10>:
      78:	18 06 00 00 00 00 00 00 00 00 00 00 00 00 00 00	r6 = 0 ll
		0000000000000270:  R_BPF_64_64	lookups
      80:	61 67 98 00 00 00 00 00	r7 = *(u32 *)(r6 + 152)
      81:	5d 71 0d 00 00 00 00 00	if r1 != r7 goto +13 <LBB0_14>
      82:	61 66 9c 00 00 00 00 00	r6 = *(u32 *)(r6 + 156)
      83:	5d 62 0b 00 00 00 00 00	if r2 != r6 goto +11 <LBB0_14>
      84:	18 07 00 00 00 00 00 00 00 00 00 00 00 00 00 00	r7 = 0 ll
		00000000000002a0:  R_BPF_64_64	lookups
      86:	61 76 a0 00 00 00 00 00	r6 = *(u32 *)(r7 + 160)
      87:	bf 38 00 00 00 00 00 00	r8 = r3
      88:	dc 08 00 00 20 00 00 00	r8 = be32 r8
      89:	5d 68 05 00 00 00 00 00	if r8 != r6 goto +5 <LBB0_14>
      90:	b7 06 00 00 01 00 00 00	r6 = 1
      91:	61 77 a4 00 00 00 00 00	r7 = *(u32 *)(r7 + 164)
      92:	bf 48 00 00 00 00 00 00	r8 = r4
      93:	dc 08 00 00 20 00 00 00	r8 = be32 r8
      94:	1d 78 01 00 00 00 00 00	if r8 == r7 goto +1 <LBB0_15>

00000000000002f8 <LBB0_14>:
      95:	b7 06 00 00 00 00 00 00	r6 = 0

0000000000000300 <LBB0_15>:
      96:	18 07 00 00 00 00 00 00 00 00 00 00 00 00 00 00	r7 = 0 ll
		0000000000000300:  R_BPF_64_64	lookups
      98:	61 78 e4 00 00 00 00 00	r8 = *(u32 *)(r7 + 228)
      99:	5d 81 0b 00 00 00 00 00	if r1 != r8 goto +11 <LBB0_19>
     100:	61 71 e8 00 00 00 00 00	r1 = *(u32 *)(r7 + 232)
     101:	5d 12 09 00 00 00 00 00	if r2 != r1 goto +9 <LBB0_19>
     102:	18 02 00 00 00 00 00 00 00 00 00 00 00 00 00 00	r2 = 0 ll
		0000000000000330:  R_BPF_64_64	lookups
     104:	61 21 ec 00 00 00 00 00	r1 = *(u32 *)(r2 + 236)
     105:	dc 03 00 00 20 00 00 00	r3 = be32 r3
     106:	5d 13 04 00 00 00 00 00	if r3 != r1 goto +4 <LBB0_19>
     107:	b7 01 00 00 01 00 00 00	r1 = 1
     108:	61 22 f0 00 00 00 00 00	r2 = *(u32 *)(r2 + 240)
     109:	dc 04 00 00 20 00 00 00	r4 = be32 r4
     110:	1d 24 01 00 00 00 00 00	if r4 == r2 goto +1 <LBB0_20>

0000000000000378 <LBB0_19>:
     111:	b7 01 00 00 00 00 00 00	r1 = 0

0000000000000380 <LBB0_20>:
     112:	0f 50 00 00 00 00 00 00	r0 += r5
     113:	0f 60 00 00 00 00 00 00	r0 += r6
     114:	0f 10 00 00 00 00 00 00	r0 += r1
     115:	95 00 00 00 00 00 00 00	exit
