
ipv6_lookup_saddr.o:	file format elf64-bpf

Disassembly of section .text:

0000000000000000 <is_dst_one_one_one_one>:
       0:	71 17 17 00 00 00 00 00	r7 = *(u8 *)(r1 + 23)
       1:	67 07 00 00 08 00 00 00	r7 <<= 8
       2:	71 12 16 00 00 00 00 00	r2 = *(u8 *)(r1 + 22)
       3:	4f 27 00 00 00 00 00 00	r7 |= r2
       4:	71 13 15 00 00 00 00 00	r3 = *(u8 *)(r1 + 21)
       5:	67 03 00 00 08 00 00 00	r3 <<= 8
       6:	71 12 14 00 00 00 00 00	r2 = *(u8 *)(r1 + 20)
       7:	4f 23 00 00 00 00 00 00	r3 |= r2
       8:	7b 3a f0 ff 00 00 00 00	*(u64 *)(r10 - 16) = r3
       9:	71 14 13 00 00 00 00 00	r4 = *(u8 *)(r1 + 19)
      10:	67 04 00 00 08 00 00 00	r4 <<= 8
      11:	71 12 12 00 00 00 00 00	r2 = *(u8 *)(r1 + 18)
      12:	4f 24 00 00 00 00 00 00	r4 |= r2
      13:	71 15 11 00 00 00 00 00	r5 = *(u8 *)(r1 + 17)
      14:	67 05 00 00 08 00 00 00	r5 <<= 8
      15:	71 12 10 00 00 00 00 00	r2 = *(u8 *)(r1 + 16)
      16:	4f 25 00 00 00 00 00 00	r5 |= r2
      17:	71 16 0f 00 00 00 00 00	r6 = *(u8 *)(r1 + 15)
      18:	67 06 00 00 08 00 00 00	r6 <<= 8
      19:	71 12 0e 00 00 00 00 00	r2 = *(u8 *)(r1 + 14)
      20:	4f 26 00 00 00 00 00 00	r6 |= r2
      21:	71 13 0d 00 00 00 00 00	r3 = *(u8 *)(r1 + 13)
      22:	67 03 00 00 08 00 00 00	r3 <<= 8
      23:	71 12 0c 00 00 00 00 00	r2 = *(u8 *)(r1 + 12)
      24:	4f 23 00 00 00 00 00 00	r3 |= r2
      25:	71 18 0b 00 00 00 00 00	r8 = *(u8 *)(r1 + 11)
      26:	67 08 00 00 08 00 00 00	r8 <<= 8
      27:	71 12 0a 00 00 00 00 00	r2 = *(u8 *)(r1 + 10)
      28:	4f 28 00 00 00 00 00 00	r8 |= r2
      29:	71 12 08 00 00 00 00 00	r2 = *(u8 *)(r1 + 8)
      30:	71 19 09 00 00 00 00 00	r9 = *(u8 *)(r1 + 9)
      31:	67 09 00 00 08 00 00 00	r9 <<= 8
      32:	4f 29 00 00 00 00 00 00	r9 |= r2
      33:	dc 09 00 00 10 00 00 00	r9 = be16 r9
      34:	18 01 00 00 00 00 00 00 00 00 00 00 00 00 00 00	r1 = 0 ll
		0000000000000110:  R_BPF_64_64	lookups
      36:	69 12 00 00 00 00 00 00	r2 = *(u16 *)(r1 + 0)
      37:	dc 08 00 00 10 00 00 00	r8 = be16 r8
      38:	5d 29 21 00 00 00 00 00	if r9 != r2 goto +33 <LBB0_8>
      39:	69 11 02 00 00 00 00 00	r1 = *(u16 *)(r1 + 2)
      40:	5d 18 1f 00 00 00 00 00	if r8 != r1 goto +31 <LBB0_8>
      41:	18 01 00 00 00 00 00 00 00 00 00 00 00 00 00 00	r1 = 0 ll
		0000000000000148:  R_BPF_64_64	lookups
      43:	69 12 04 00 00 00 00 00	r2 = *(u16 *)(r1 + 4)
      44:	bf 30 00 00 00 00 00 00	r0 = r3
      45:	dc 00 00 00 10 00 00 00	r0 = be16 r0
      46:	5d 20 19 00 00 00 00 00	if r0 != r2 goto +25 <LBB0_8>
      47:	69 11 06 00 00 00 00 00	r1 = *(u16 *)(r1 + 6)
      48:	bf 62 00 00 00 00 00 00	r2 = r6
      49:	dc 02 00 00 10 00 00 00	r2 = be16 r2
      50:	5d 12 15 00 00 00 00 00	if r2 != r1 goto +21 <LBB0_8>
      51:	18 01 00 00 00 00 00 00 00 00 00 00 00 00 00 00	r1 = 0 ll
		0000000000000198:  R_BPF_64_64	lookups
      53:	69 12 08 00 00 00 00 00	r2 = *(u16 *)(r1 + 8)
      54:	bf 50 00 00 00 00 00 00	r0 = r5
      55:	dc 00 00 00 10 00 00 00	r0 = be16 r0
      56:	5d 20 0f 00 00 00 00 00	if r0 != r2 goto +15 <LBB0_8>
      57:	69 11 0a 00 00 00 00 00	r1 = *(u16 *)(r1 + 10)
      58:	bf 42 00 00 00 00 00 00	r2 = r4
      59:	dc 02 00 00 10 00 00 00	r2 = be16 r2
      60:	5d 12 0b 00 00 00 00 00	if r2 != r1 goto +11 <LBB0_8>
      61:	18 01 00 00 00 00 00 00 00 00 00 00 00 00 00 00	r1 = 0 ll
		00000000000001e8:  R_BPF_64_64	lookups
      63:	69 12 0c 00 00 00 00 00	r2 = *(u16 *)(r1 + 12)
      64:	79 a0 f0 ff 00 00 00 00	r0 = *(u64 *)(r10 - 16)
      65:	dc 00 00 00 10 00 00 00	r0 = be16 r0
      66:	5d 20 05 00 00 00 00 00	if r0 != r2 goto +5 <LBB0_8>
      67:	b7 00 00 00 01 00 00 00	r0 = 1
      68:	69 11 0e 00 00 00 00 00	r1 = *(u16 *)(r1 + 14)
      69:	bf 72 00 00 00 00 00 00	r2 = r7
      70:	dc 02 00 00 10 00 00 00	r2 = be16 r2
      71:	1d 12 01 00 00 00 00 00	if r2 == r1 goto +1 <LBB0_9>

0000000000000240 <LBB0_8>:
      72:	b7 00 00 00 00 00 00 00	r0 = 0

0000000000000248 <LBB0_9>:
      73:	7b 0a f8 ff 00 00 00 00	*(u64 *)(r10 - 8) = r0
      74:	18 01 00 00 00 00 00 00 00 00 00 00 00 00 00 00	r1 = 0 ll
		0000000000000250:  R_BPF_64_64	lookups
      76:	69 12 4c 00 00 00 00 00	r2 = *(u16 *)(r1 + 76)
      77:	5d 29 21 00 00 00 00 00	if r9 != r2 goto +33 <LBB0_17>
      78:	69 11 4e 00 00 00 00 00	r1 = *(u16 *)(r1 + 78)
      79:	5d 18 1f 00 00 00 00 00	if r8 != r1 goto +31 <LBB0_17>
      80:	18 01 00 00 00 00 00 00 00 00 00 00 00 00 00 00	r1 = 0 ll
		0000000000000280:  R_BPF_64_64	lookups
      82:	69 12 50 00 00 00 00 00	r2 = *(u16 *)(r1 + 80)
      83:	bf 30 00 00 00 00 00 00	r0 = r3
      84:	dc 00 00 00 10 00 00 00	r0 = be16 r0
      85:	5d 20 19 00 00 00 00 00	if r0 != r2 goto +25 <LBB0_17>
      86:	69 11 52 00 00 00 00 00	r1 = *(u16 *)(r1 + 82)
      87:	bf 62 00 00 00 00 00 00	r2 = r6
      88:	dc 02 00 00 10 00 00 00	r2 = be16 r2
      89:	5d 12 15 00 00 00 00 00	if r2 != r1 goto +21 <LBB0_17>
      90:	18 01 00 00 00 00 00 00 00 00 00 00 00 00 00 00	r1 = 0 ll
		00000000000002d0:  R_BPF_64_64	lookups
      92:	69 12 54 00 00 00 00 00	r2 = *(u16 *)(r1 + 84)
      93:	bf 50 00 00 00 00 00 00	r0 = r5
      94:	dc 00 00 00 10 00 00 00	r0 = be16 r0
      95:	5d 20 0f 00 00 00 00 00	if r0 != r2 goto +15 <LBB0_17>
      96:	69 11 56 00 00 00 00 00	r1 = *(u16 *)(r1 + 86)
      97:	bf 42 00 00 00 00 00 00	r2 = r4
      98:	dc 02 00 00 10 00 00 00	r2 = be16 r2
      99:	5d 12 0b 00 00 00 00 00	if r2 != r1 goto +11 <LBB0_17>
     100:	18 01 00 00 00 00 00 00 00 00 00 00 00 00 00 00	r1 = 0 ll
		0000000000000320:  R_BPF_64_64	lookups
     102:	69 12 58 00 00 00 00 00	r2 = *(u16 *)(r1 + 88)
     103:	79 a0 f0 ff 00 00 00 00	r0 = *(u64 *)(r10 - 16)
     104:	dc 00 00 00 10 00 00 00	r0 = be16 r0
     105:	5d 20 05 00 00 00 00 00	if r0 != r2 goto +5 <LBB0_17>
     106:	b7 00 00 00 01 00 00 00	r0 = 1
     107:	69 11 5a 00 00 00 00 00	r1 = *(u16 *)(r1 + 90)
     108:	bf 72 00 00 00 00 00 00	r2 = r7
     109:	dc 02 00 00 10 00 00 00	r2 = be16 r2
     110:	1d 12 01 00 00 00 00 00	if r2 == r1 goto +1 <LBB0_18>

0000000000000378 <LBB0_17>:
     111:	b7 00 00 00 00 00 00 00	r0 = 0

0000000000000380 <LBB0_18>:
     112:	7b 7a e8 ff 00 00 00 00	*(u64 *)(r10 - 24) = r7
     113:	18 01 00 00 00 00 00 00 00 00 00 00 00 00 00 00	r1 = 0 ll
		0000000000000388:  R_BPF_64_64	lookups
     115:	69 12 98 00 00 00 00 00	r2 = *(u16 *)(r1 + 152)
     116:	5d 29 21 00 00 00 00 00	if r9 != r2 goto +33 <LBB0_26>
     117:	69 11 9a 00 00 00 00 00	r1 = *(u16 *)(r1 + 154)
     118:	5d 18 1f 00 00 00 00 00	if r8 != r1 goto +31 <LBB0_26>
     119:	18 01 00 00 00 00 00 00 00 00 00 00 00 00 00 00	r1 = 0 ll
		00000000000003b8:  R_BPF_64_64	lookups
     121:	69 12 9c 00 00 00 00 00	r2 = *(u16 *)(r1 + 156)
     122:	bf 37 00 00 00 00 00 00	r7 = r3
     123:	dc 07 00 00 10 00 00 00	r7 = be16 r7
     124:	5d 27 19 00 00 00 00 00	if r7 != r2 goto +25 <LBB0_26>
     125:	69 11 9e 00 00 00 00 00	r1 = *(u16 *)(r1 + 158)
     126:	bf 62 00 00 00 00 00 00	r2 = r6
     127:	dc 02 00 00 10 00 00 00	r2 = be16 r2
     128:	5d 12 15 00 00 00 00 00	if r2 != r1 goto +21 <LBB0_26>
     129:	18 01 00 00 00 00 00 00 00 00 00 00 00 00 00 00	r1 = 0 ll
		0000000000000408:  R_BPF_64_64	lookups
     131:	69 12 a0 00 00 00 00 00	r2 = *(u16 *)(r1 + 160)
     132:	bf 57 00 00 00 00 00 00	r7 = r5
     133:	dc 07 00 00 10 00 00 00	r7 = be16 r7
     134:	5d 27 0f 00 00 00 00 00	if r7 != r2 goto +15 <LBB0_26>
     135:	69 11 a2 00 00 00 00 00	r1 = *(u16 *)(r1 + 162)
     136:	bf 42 00 00 00 00 00 00	r2 = r4
     137:	dc 02 00 00 10 00 00 00	r2 = be16 r2
     138:	5d 12 0b 00 00 00 00 00	if r2 != r1 goto +11 <LBB0_26>
     139:	18 07 00 00 00 00 00 00 00 00 00 00 00 00 00 00	r7 = 0 ll
		0000000000000458:  R_BPF_64_64	lookups
     141:	69 71 a4 00 00 00 00 00	r1 = *(u16 *)(r7 + 164)
     142:	79 a2 f0 ff 00 00 00 00	r2 = *(u64 *)(r10 - 16)
     143:	dc 02 00 00 10 00 00 00	r2 = be16 r2
     144:	5d 12 05 00 00 00 00 00	if r2 != r1 goto +5 <LBB0_26>
     145:	b7 01 00 00 01 00 00 00	r1 = 1
     146:	69 72 a6 00 00 00 00 00	r2 = *(u16 *)(r7 + 166)
     147:	79 a7 e8 ff 00 00 00 00	r7 = *(u64 *)(r10 - 24)
     148:	dc 07 00 00 10 00 00 00	r7 = be16 r7
     149:	1d 27 01 00 00 00 00 00	if r7 == r2 goto +1 <LBB0_27>

00000000000004b0 <LBB0_26>:
     150:	b7 01 00 00 00 00 00 00	r1 = 0

00000000000004b8 <LBB0_27>:
     151:	18 02 00 00 00 00 00 00 00 00 00 00 00 00 00 00	r2 = 0 ll
		00000000000004b8:  R_BPF_64_64	lookups
     153:	69 27 e4 00 00 00 00 00	r7 = *(u16 *)(r2 + 228)
     154:	5d 79 1d 00 00 00 00 00	if r9 != r7 goto +29 <LBB0_35>
     155:	69 22 e6 00 00 00 00 00	r2 = *(u16 *)(r2 + 230)
     156:	5d 28 1b 00 00 00 00 00	if r8 != r2 goto +27 <LBB0_35>
     157:	18 08 00 00 00 00 00 00 00 00 00 00 00 00 00 00	r8 = 0 ll
		00000000000004e8:  R_BPF_64_64	lookups
     159:	69 82 e8 00 00 00 00 00	r2 = *(u16 *)(r8 + 232)
     160:	dc 03 00 00 10 00 00 00	r3 = be16 r3
     161:	5d 23 16 00 00 00 00 00	if r3 != r2 goto +22 <LBB0_35>
     162:	69 82 ea 00 00 00 00 00	r2 = *(u16 *)(r8 + 234)
     163:	dc 06 00 00 10 00 00 00	r6 = be16 r6
     164:	5d 26 13 00 00 00 00 00	if r6 != r2 goto +19 <LBB0_35>
     165:	18 06 00 00 00 00 00 00 00 00 00 00 00 00 00 00	r6 = 0 ll
		0000000000000528:  R_BPF_64_64	lookups
     167:	69 62 ec 00 00 00 00 00	r2 = *(u16 *)(r6 + 236)
     168:	dc 05 00 00 10 00 00 00	r5 = be16 r5
     169:	5d 25 0e 00 00 00 00 00	if r5 != r2 goto +14 <LBB0_35>
     170:	69 62 ee 00 00 00 00 00	r2 = *(u16 *)(r6 + 238)
     171:	dc 04 00 00 10 00 00 00	r4 = be16 r4
     172:	5d 24 0b 00 00 00 00 00	if r4 != r2 goto +11 <LBB0_35>
     173:	18 04 00 00 00 00 00 00 00 00 00 00 00 00 00 00	r4 = 0 ll
		0000000000000568:  R_BPF_64_64	lookups
     175:	69 42 f0 00 00 00 00 00	r2 = *(u16 *)(r4 + 240)
     176:	79 a3 f0 ff 00 00 00 00	r3 = *(u64 *)(r10 - 16)
     177:	dc 03 00 00 10 00 00 00	r3 = be16 r3
     178:	5d 23 05 00 00 00 00 00	if r3 != r2 goto +5 <LBB0_35>
     179:	b7 03 00 00 01 00 00 00	r3 = 1
     180:	69 42 f2 00 00 00 00 00	r2 = *(u16 *)(r4 + 242)
     181:	79 a4 e8 ff 00 00 00 00	r4 = *(u64 *)(r10 - 24)
     182:	dc 04 00 00 10 00 00 00	r4 = be16 r4
     183:	1d 24 01 00 00 00 00 00	if r4 == r2 goto +1 <LBB0_36>

00000000000005c0 <LBB0_35>:
     184:	b7 03 00 00 00 00 00 00	r3 = 0

00000000000005c8 <LBB0_36>:
     185:	79 a2 f8 ff 00 00 00 00	r2 = *(u64 *)(r10 - 8)
     186:	0f 20 00 00 00 00 00 00	r0 += r2
     187:	0f 10 00 00 00 00 00 00	r0 += r1
     188:	0f 30 00 00 00 00 00 00	r0 += r3
     189:	95 00 00 00 00 00 00 00	exit
